; Function Attrs: uwtable
define void @_ZThn24_N3zmq8reaper_t9out_eventEv(ptr nocapture readnone %this) unnamed_addr #10 align 2 {
entry:
  %0 = load ptr, ptr @stderr, align 8
  %call.i = tail call i32 (ptr, ptr, ...) @fprintf(ptr noundef %0, ptr noundef nonnull @.str.3, ptr noundef nonnull @.str.7, ptr noundef nonnull @.str.1, i32 noundef 83) #13
  %1 = load ptr, ptr @stderr, align 8
  %call2.i = tail call i32 @fflush(ptr noundef %1)
  tail call void @_ZN3zmq9zmq_abortEPKc(ptr noundef nonnull @.str.7)
  ret void
}